; Function Attrs: nounwind uwtable
define internal i32 @hapqa_extract(ptr noundef %0, ptr noundef %1) #0 {
  %3 = alloca %struct.GetByteContext, align 8
  %4 = alloca i32, align 4
  %5 = alloca i32, align 4
  %6 = getelementptr inbounds nuw i8, ptr %0, i64 16
  %7 = load ptr, ptr %6, align 8, !tbaa !4
  call void @llvm.lifetime.start.p0(i64 24, ptr nonnull %3) #5
  call void @llvm.lifetime.start.p0(i64 4, ptr nonnull %4) #5
  call void @llvm.lifetime.start.p0(i64 4, ptr nonnull %5) #5
  %8 = tail call i32 @ff_bsf_get_packet_ref(ptr noundef %0, ptr noundef %1) #5
  %9 = icmp slt i32 %8, 0
  br i1 %9, label %71, label %10

10:                                               ; preds = %2
  %11 = getelementptr inbounds nuw i8, ptr %1, i64 24
  %12 = getelementptr inbounds nuw i8, ptr %1, i64 32
  %13 = load i32, ptr %12, align 8, !tbaa !14
  %14 = icmp sgt i32 %13, -1
  br i1 %14, label %bytestream2_init.exit, label %15

15:                                               ; preds = %10
  tail call void (ptr, i32, ptr, ...) @av_log(ptr noundef null, i32 noundef 0, ptr noundef nonnull @.str.12, ptr noundef nonnull @.str.13, ptr noundef nonnull @.str.14, i32 noundef 141) #5
  tail call void @abort() #6
  unreachable

bytestream2_init.exit:                            ; preds = %10
  %16 = load ptr, ptr %11, align 8, !tbaa !20
  store ptr %16, ptr %3, align 8, !tbaa !21
  %17 = getelementptr inbounds nuw i8, ptr %3, i64 16
  store ptr %16, ptr %17, align 8, !tbaa !23
  %18 = zext nneg i32 %13 to i64
  %19 = getelementptr inbounds nuw i8, ptr %16, i64 %18
  %20 = getelementptr inbounds nuw i8, ptr %3, i64 8
  store ptr %19, ptr %20, align 8, !tbaa !24
  %21 = call i32 @ff_hap_parse_section_header(ptr noundef nonnull %3, ptr noundef nonnull %4, ptr noundef nonnull %5) #5
  %.not = icmp eq i32 %21, 0
  br i1 %.not, label %22, label %69

22:                                               ; preds = %bytestream2_init.exit
  %23 = load i32, ptr %5, align 4, !tbaa !25
  %24 = and i32 %23, 15
  %.not34 = icmp eq i32 %24, 13
  br i1 %.not34, label %26, label %25

25:                                               ; preds = %22
  call void (ptr, i32, ptr, ...) @av_log(ptr noundef nonnull %0, i32 noundef 16, ptr noundef nonnull @.str.10, i32 noundef %24) #5
  br label %.thread

26:                                               ; preds = %22
  %27 = load ptr, ptr %20, align 8, !tbaa !24
  %28 = load ptr, ptr %17, align 8, !tbaa !23
  %29 = ptrtoint ptr %27 to i64
  %30 = ptrtoint ptr %28 to i64
  %31 = sub i64 %29, %30
  %32 = trunc i64 %31 to i32
  %..i37 = call i32 @llvm.smin.i32(i32 %32, i32 4)
  %33 = sext i32 %..i37 to i64
  %34 = getelementptr inbounds i8, ptr %28, i64 %33
  store ptr %34, ptr %3, align 8, !tbaa !21
  %35 = call i32 @ff_hap_parse_section_header(ptr noundef nonnull %3, ptr noundef nonnull %4, ptr noundef nonnull %5) #5
  %.not35 = icmp eq i32 %35, 0
  br i1 %.not35, label %36, label %69

36:                                               ; preds = %26
  %37 = load i32, ptr %4, align 4, !tbaa !25
  %38 = load i32, ptr %5, align 4, !tbaa !25
  %39 = getelementptr i8, ptr %7, i64 8
  %.val = load i32, ptr %39, align 8, !tbaa !26
  %40 = icmp ne i32 %.val, 0
  %41 = and i32 %38, 15
  %42 = icmp ne i32 %41, 15
  %or.cond.i.not51 = or i1 %40, %42
  %43 = icmp ne i32 %.val, 1
  %44 = icmp ne i32 %41, 1
  %or.cond6.i.not54 = or i1 %43, %44
  %narrow.i.not = and i1 %or.cond.i.not51, %or.cond6.i.not54
  br i1 %narrow.i.not, label %45, label %.thread47

45:                                               ; preds = %36
  %46 = add nsw i32 %37, 8
  %47 = load ptr, ptr %20, align 8, !tbaa !24
  %48 = load ptr, ptr %17, align 8, !tbaa !23
  %49 = ptrtoint ptr %47 to i64
  %50 = ptrtoint ptr %48 to i64
  %51 = sub i64 %49, %50
  %52 = trunc i64 %51 to i32
  %53 = icmp slt i32 %37, -8
  %..i = call i32 @llvm.smin.i32(i32 %46, i32 %52)
  %.0.i = select i1 %53, i32 0, i32 %..i
  %54 = sext i32 %.0.i to i64
  %55 = getelementptr inbounds i8, ptr %48, i64 %54
  store ptr %55, ptr %3, align 8, !tbaa !21
  %56 = call i32 @ff_hap_parse_section_header(ptr noundef nonnull %3, ptr noundef nonnull %4, ptr noundef nonnull %5) #5
  %.not36 = icmp eq i32 %56, 0
  br i1 %.not36, label %57, label %69

57:                                               ; preds = %45
  %58 = load i32, ptr %4, align 4, !tbaa !25
  %59 = load i32, ptr %5, align 4, !tbaa !25
  %.val39 = load i32, ptr %39, align 8, !tbaa !26
  %60 = icmp ne i32 %.val39, 0
  %61 = and i32 %59, 15
  %62 = icmp ne i32 %61, 15
  %or.cond.i41.not57 = or i1 %60, %62
  %63 = icmp ne i32 %.val39, 1
  %64 = icmp ne i32 %61, 1
  %or.cond6.i42.not60 = or i1 %63, %64
  %narrow.i43.not = and i1 %or.cond.i41.not57, %or.cond6.i42.not60
  br i1 %narrow.i43.not, label %65, label %.thread47

65:                                               ; preds = %57
  call void (ptr, i32, ptr, ...) @av_log(ptr noundef nonnull %0, i32 noundef 16, ptr noundef nonnull @.str.11) #5
  br label %.thread

.thread47:                                        ; preds = %36, %57
  %.025 = phi i32 [ %46, %57 ], [ 4, %36 ]
  %.024.in = phi i32 [ %58, %57 ], [ %37, %36 ]
  %.024 = add nsw i32 %.024.in, 4
  %66 = load ptr, ptr %11, align 8, !tbaa !20
  %67 = sext i32 %.025 to i64
  %68 = getelementptr inbounds i8, ptr %66, i64 %67
  store ptr %68, ptr %11, align 8, !tbaa !20
  store i32 %.024, ptr %12, align 8, !tbaa !14
  br label %71

69:                                               ; preds = %45, %26, %bytestream2_init.exit
  %.0 = phi i32 [ %21, %bytestream2_init.exit ], [ %35, %26 ], [ %56, %45 ]
  %70 = icmp slt i32 %.0, 0
  br i1 %70, label %.thread, label %71

.thread:                                          ; preds = %65, %25, %69
  %.046 = phi i32 [ %.0, %69 ], [ -1094995529, %25 ], [ -1094995529, %65 ]
  call void @av_packet_unref(ptr noundef nonnull %1) #5
  br label %71

71:                                               ; preds = %.thread47, %69, %.thread, %2
  %.026 = phi i32 [ %8, %2 ], [ %.046, %.thread ], [ %.0, %69 ], [ 0, %.thread47 ]
  call void @llvm.lifetime.end.p0(i64 4, ptr nonnull %5) #5
  call void @llvm.lifetime.end.p0(i64 4, ptr nonnull %4) #5
  call void @llvm.lifetime.end.p0(i64 24, ptr nonnull %3) #5
  ret i32 %.026
}